; Function Attrs: mustprogress uwtable
define void @_ZN5boost9iostreams20file_descriptor_sink4openEiNS0_21file_descriptor_flagsE(ptr nocapture noundef nonnull readonly align 8 dereferenceable(16) %0, i32 noundef %1, i32 noundef %2) local_unnamed_addr #3 align 2 personality ptr @__gxx_personality_v0 {
  %4 = alloca %"class.std::ios_base::failure", align 8
  %5 = alloca %"struct.boost::iostreams::detail::file_descriptor_impl", align 4
  %6 = load ptr, ptr %0, align 8, !tbaa !19
  call void @llvm.lifetime.start.p0(i64 8, ptr nonnull %5) #28
  %7 = getelementptr inbounds nuw i8, ptr %5, i64 4
  %8 = load i32, ptr %6, align 4, !tbaa !3
  store i32 %8, ptr %5, align 4, !tbaa !3
  %9 = getelementptr inbounds nuw i8, ptr %6, i64 4
  %10 = load i32, ptr %9, align 4, !tbaa !8
  %11 = shl i32 %10, 1
  %12 = and i32 %11, 2
  store i32 %12, ptr %7, align 4, !tbaa !8
  store i32 %1, ptr %6, align 4, !tbaa !3
  store i32 %2, ptr %9, align 4, !tbaa !8
  %.not.i.i.i.i = icmp eq i32 %8, -1
  %.not.i.i.i = icmp eq i32 %12, 0
  %or.cond.i.i = select i1 %.not.i.i.i.i, i1 true, i1 %.not.i.i.i
  br i1 %or.cond.i.i, label %_ZN5boost9iostreams15file_descriptor4openEiNS0_21file_descriptor_flagsE.exit, label %13

13:                                               ; preds = %3
  %14 = invoke i32 @close(i32 noundef %8)
          to label %.noexc.i.i unwind label %20

.noexc.i.i:                                       ; preds = %13
  %15 = icmp eq i32 %14, -1
  store i32 -1, ptr %5, align 4, !tbaa !3
  store i32 0, ptr %7, align 4, !tbaa !8
  br i1 %15, label %16, label %_ZN5boost9iostreams15file_descriptor4openEiNS0_21file_descriptor_flagsE.exit

16:                                               ; preds = %.noexc.i.i
  call void @llvm.lifetime.start.p0(i64 32, ptr nonnull %4) #28
  invoke void @_ZN5boost9iostreams6detail14system_failureB5cxx11EPKc(ptr dead_on_unwind nonnull writable sret(%"class.std::ios_base::failure") align 8 %4, ptr noundef nonnull @.str.2)
          to label %.noexc4.i.i unwind label %20

.noexc4.i.i:                                      ; preds = %16
  invoke void @_ZN5boost15throw_exceptionINSt8ios_base7failureB5cxx11EEEvRKT_(ptr noundef nonnull align 8 dereferenceable(32) %4) #29
          to label %17 unwind label %18

17:                                               ; preds = %.noexc4.i.i
  unreachable

18:                                               ; preds = %.noexc4.i.i
  %19 = landingpad { ptr, i32 }
          cleanup
  call void @_ZNSt8ios_base7failureB5cxx11D1Ev(ptr noundef nonnull align 8 dereferenceable(32) %4) #28
  call void @llvm.lifetime.end.p0(i64 32, ptr nonnull %4) #28
  br label %.body.i.i

20:                                               ; preds = %16, %13
  %21 = landingpad { ptr, i32 }
          cleanup
  br label %.body.i.i

.body.i.i:                                        ; preds = %20, %18
  %eh.lpad-body.i.i = phi { ptr, i32 } [ %21, %20 ], [ %19, %18 ]
  call void @_ZN5boost9iostreams6detail20file_descriptor_implD2Ev(ptr noundef nonnull align 4 dereferenceable(8) %5) #28
  call void @llvm.lifetime.end.p0(i64 8, ptr nonnull %5) #28
  resume { ptr, i32 } %eh.lpad-body.i.i

_ZN5boost9iostreams15file_descriptor4openEiNS0_21file_descriptor_flagsE.exit: ; preds = %3, %.noexc.i.i
  call void @llvm.lifetime.end.p0(i64 8, ptr nonnull %5) #28
  ret void
}